; Function Attrs: mustprogress uwtable
define hidden noundef ptr @_ZNK13macro_manager24get_macro_interpretationEjR7obj_refI4expr11ast_managerE(ptr noundef nonnull align 8 dereferenceable(568) %0, i32 noundef %1, ptr noundef nonnull align 8 dereferenceable(16) %2) local_unnamed_addr #3 align 2 personality ptr @__gxx_personality_v0 {
  %4 = alloca ptr, align 8
  %5 = alloca %class.obj_ref, align 8
  %6 = alloca i8, align 1
  %7 = getelementptr inbounds nuw i8, ptr %0, i64 408
  %8 = load ptr, ptr %7, align 8, !tbaa !27
  %9 = zext i32 %1 to i64
  %10 = getelementptr inbounds nuw ptr, ptr %8, i64 %9
  %11 = load ptr, ptr %10, align 8, !tbaa !84
  %12 = getelementptr inbounds nuw i8, ptr %0, i64 424
  %13 = load ptr, ptr %12, align 8, !tbaa !31
  %14 = getelementptr inbounds nuw ptr, ptr %13, i64 %9
  %15 = load ptr, ptr %14, align 8, !tbaa !101
  call void @llvm.lifetime.start.p0(i64 8, ptr nonnull %4) #19
  call void @llvm.lifetime.start.p0(i64 16, ptr nonnull %5) #19
  %16 = load ptr, ptr %0, align 8, !tbaa !114
  store ptr null, ptr %5, align 8, !tbaa !107
  %17 = getelementptr inbounds nuw i8, ptr %5, i64 8
  store ptr %16, ptr %17, align 8, !tbaa !3
  call void @llvm.lifetime.start.p0(i64 1, ptr nonnull %6) #19
  invoke void @_ZNK13macro_manager12get_head_defEP10quantifierP9func_declRP3appR7obj_refI4expr11ast_managerERb(ptr noundef nonnull align 8 dereferenceable(568) %0, ptr noundef %15, ptr noundef %11, ptr noundef nonnull align 8 dereferenceable(8) %4, ptr noundef nonnull align 8 dereferenceable(16) %5, ptr noundef nonnull align 1 dereferenceable(1) %6)
          to label %18 unwind label %35

18:                                               ; preds = %3
  %19 = getelementptr inbounds nuw i8, ptr %0, i64 8
  %20 = load ptr, ptr %4, align 8, !tbaa !96
  %21 = getelementptr inbounds nuw i8, ptr %15, i64 20
  %22 = load i32, ptr %21, align 4, !tbaa !278
  %23 = load ptr, ptr %5, align 8, !tbaa !107
  invoke void @_ZNK10macro_util23mk_macro_interpretationEP3appjP4exprR7obj_refIS2_11ast_managerE(ptr noundef nonnull align 8 dereferenceable(320) %19, ptr noundef %20, i32 noundef %22, ptr noundef %23, ptr noundef nonnull align 8 dereferenceable(16) %2)
          to label %24 unwind label %35

24:                                               ; preds = %18
  call void @llvm.lifetime.end.p0(i64 1, ptr nonnull %6) #19
  %.not.i.i = icmp eq ptr %23, null
  br i1 %.not.i.i, label %_ZN7obj_refI4expr11ast_managerED2Ev.exit, label %25

25:                                               ; preds = %24
  %26 = load ptr, ptr %17, align 8, !tbaa !108
  %27 = getelementptr inbounds nuw i8, ptr %23, i64 8
  %28 = load i32, ptr %27, align 4, !tbaa !87
  %29 = add i32 %28, -1
  store i32 %29, ptr %27, align 4, !tbaa !87
  %30 = icmp eq i32 %29, 0
  br i1 %30, label %31, label %_ZN7obj_refI4expr11ast_managerED2Ev.exit

31:                                               ; preds = %25
  invoke void @_ZN11ast_manager11delete_nodeEP3ast(ptr noundef nonnull align 8 dereferenceable(976) %26, ptr noundef nonnull %23)
          to label %_ZN7obj_refI4expr11ast_managerED2Ev.exit unwind label %32

32:                                               ; preds = %31
  %33 = landingpad { ptr, i32 }
          catch ptr null
  %34 = extractvalue { ptr, i32 } %33, 0
  tail call void @__clang_call_terminate(ptr %34) #20
  unreachable

_ZN7obj_refI4expr11ast_managerED2Ev.exit:         ; preds = %24, %25, %31
  call void @llvm.lifetime.end.p0(i64 16, ptr nonnull %5) #19
  call void @llvm.lifetime.end.p0(i64 8, ptr nonnull %4) #19
  ret ptr %11

35:                                               ; preds = %18, %3
  %36 = landingpad { ptr, i32 }
          cleanup
  call void @llvm.lifetime.end.p0(i64 1, ptr nonnull %6) #19
  call void @_ZN7obj_refI4expr11ast_managerED2Ev(ptr noundef nonnull align 8 dereferenceable(16) %5) #19
  call void @llvm.lifetime.end.p0(i64 16, ptr nonnull %5) #19
  call void @llvm.lifetime.end.p0(i64 8, ptr nonnull %4) #19
  resume { ptr, i32 } %36
}